#ld: 
#objects: /ld-pic30-coff/cert0406a.out /ld-pic30-coff/cert0406b.out
#objdump: -d
#name: TBLPAGE Relocation

.+cert0406a.o:     file format coff-pic30

Disassembly of section \.reset:

00000000 \<\.reset\>:
   0:	4e 82 04    	goto      0x2824e \<__reset\>
   2:	02 00 00 
Disassembly of section \.ivt:

00000004 \<\.ivt\>:
   4:	62 82 02    	call      0x82628262 \<__FICD\+0x816a8256\>
   6:	62 82 02 
   8:	62 82 02    	call      0x82628262 \<__FICD\+0x816a8256\>
   a:	62 82 02 
   c:	62 82 02    	call      0x82628262 \<__FICD\+0x816a8256\>
   e:	62 82 02 
  10:	62 82 02    	call      0x82628262 \<__FICD\+0x816a8256\>
  12:	62 82 02 
  14:	62 82 02    	call      0x82628262 \<__FICD\+0x816a8256\>
  16:	62 82 02 
  18:	62 82 02    	call      0x82628262 \<__FICD\+0x816a8256\>
  1a:	62 82 02 
  1c:	62 82 02    	call      0x82628262 \<__FICD\+0x816a8256\>
  1e:	62 82 02 
  20:	62 82 02    	call      0x82628262 \<__FICD\+0x816a8256\>
  22:	62 82 02 
  24:	62 82 02    	call      0x82628262 \<__FICD\+0x816a8256\>
  26:	62 82 02 
  28:	62 82 02    	call      0x82628262 \<__FICD\+0x816a8256\>
  2a:	62 82 02 
  2c:	62 82 02    	call      0x82628262 \<__FICD\+0x816a8256\>
  2e:	62 82 02 
  30:	62 82 02    	call      0x82628262 \<__FICD\+0x816a8256\>
  32:	62 82 02 
  34:	62 82 02    	call      0x82628262 \<__FICD\+0x816a8256\>
  36:	62 82 02 
  38:	62 82 02    	call      0x82628262 \<__FICD\+0x816a8256\>
  3a:	62 82 02 
  3c:	62 82 02    	call      0x82628262 \<__FICD\+0x816a8256\>
  3e:	62 82 02 
  40:	62 82 02    	call      0x82628262 \<__FICD\+0x816a8256\>
  42:	62 82 02 
  44:	62 82 02    	call      0x82628262 \<__FICD\+0x816a8256\>
  46:	62 82 02 
  48:	62 82 02    	call      0x82628262 \<__FICD\+0x816a8256\>
  4a:	62 82 02 
  4c:	62 82 02    	call      0x82628262 \<__FICD\+0x816a8256\>
  4e:	62 82 02 
  50:	62 82 02    	call      0x82628262 \<__FICD\+0x816a8256\>
  52:	62 82 02 
  54:	62 82 02    	call      0x82628262 \<__FICD\+0x816a8256\>
  56:	62 82 02 
  58:	62 82 02    	call      0x82628262 \<__FICD\+0x816a8256\>
  5a:	62 82 02 
  5c:	62 82 02    	call      0x82628262 \<__FICD\+0x816a8256\>
  5e:	62 82 02 
  60:	62 82 02    	call      0x82628262 \<__FICD\+0x816a8256\>
  62:	62 82 02 
  64:	62 82 02    	call      0x82628262 \<__FICD\+0x816a8256\>
  66:	62 82 02 
  68:	62 82 02    	call      0x82628262 \<__FICD\+0x816a8256\>
  6a:	62 82 02 
  6c:	62 82 02    	call      0x82628262 \<__FICD\+0x816a8256\>
  6e:	62 82 02 
  70:	62 82 02    	call      0x82628262 \<__FICD\+0x816a8256\>
  72:	62 82 02 
  74:	62 82 02    	call      0x82628262 \<__FICD\+0x816a8256\>
  76:	62 82 02 
  78:	62 82 02    	call      0x82628262 \<__FICD\+0x816a8256\>
  7a:	62 82 02 
  7c:	62 82 02    	call      0x82628262 \<__FICD\+0x816a8256\>
  7e:	62 82 02 
Disassembly of section \.aivt:

00000084 \<\.aivt\>:
  84:	62 82 02    	call      0x82628262 \<__FICD\+0x816a8256\>
  86:	62 82 02 
  88:	62 82 02    	call      0x82628262 \<__FICD\+0x816a8256\>
  8a:	62 82 02 
  8c:	62 82 02    	call      0x82628262 \<__FICD\+0x816a8256\>
  8e:	62 82 02 
  90:	62 82 02    	call      0x82628262 \<__FICD\+0x816a8256\>
  92:	62 82 02 
  94:	62 82 02    	call      0x82628262 \<__FICD\+0x816a8256\>
  96:	62 82 02 
  98:	62 82 02    	call      0x82628262 \<__FICD\+0x816a8256\>
  9a:	62 82 02 
  9c:	62 82 02    	call      0x82628262 \<__FICD\+0x816a8256\>
  9e:	62 82 02 
  a0:	62 82 02    	call      0x82628262 \<__FICD\+0x816a8256\>
  a2:	62 82 02 
  a4:	62 82 02    	call      0x82628262 \<__FICD\+0x816a8256\>
  a6:	62 82 02 
  a8:	62 82 02    	call      0x82628262 \<__FICD\+0x816a8256\>
  aa:	62 82 02 
  ac:	62 82 02    	call      0x82628262 \<__FICD\+0x816a8256\>
  ae:	62 82 02 
  b0:	62 82 02    	call      0x82628262 \<__FICD\+0x816a8256\>
  b2:	62 82 02 
  b4:	62 82 02    	call      0x82628262 \<__FICD\+0x816a8256\>
  b6:	62 82 02 
  b8:	62 82 02    	call      0x82628262 \<__FICD\+0x816a8256\>
  ba:	62 82 02 
  bc:	62 82 02    	call      0x82628262 \<__FICD\+0x816a8256\>
  be:	62 82 02 
  c0:	62 82 02    	call      0x82628262 \<__FICD\+0x816a8256\>
  c2:	62 82 02 
  c4:	62 82 02    	call      0x82628262 \<__FICD\+0x816a8256\>
  c6:	62 82 02 
  c8:	62 82 02    	call      0x82628262 \<__FICD\+0x816a8256\>
  ca:	62 82 02 
  cc:	62 82 02    	call      0x82628262 \<__FICD\+0x816a8256\>
  ce:	62 82 02 
  d0:	62 82 02    	call      0x82628262 \<__FICD\+0x816a8256\>
  d2:	62 82 02 
  d4:	62 82 02    	call      0x82628262 \<__FICD\+0x816a8256\>
  d6:	62 82 02 
  d8:	62 82 02    	call      0x82628262 \<__FICD\+0x816a8256\>
  da:	62 82 02 
  dc:	62 82 02    	call      0x82628262 \<__FICD\+0x816a8256\>
  de:	62 82 02 
  e0:	62 82 02    	call      0x82628262 \<__FICD\+0x816a8256\>
  e2:	62 82 02 
  e4:	62 82 02    	call      0x82628262 \<__FICD\+0x816a8256\>
  e6:	62 82 02 
  e8:	62 82 02    	call      0x82628262 \<__FICD\+0x816a8256\>
  ea:	62 82 02 
  ec:	62 82 02    	call      0x82628262 \<__FICD\+0x816a8256\>
  ee:	62 82 02 
  f0:	62 82 02    	call      0x82628262 \<__FICD\+0x816a8256\>
  f2:	62 82 02 
  f4:	62 82 02    	call      0x82628262 \<__FICD\+0x816a8256\>
  f6:	62 82 02 
  f8:	62 82 02    	call      0x82628262 \<__FICD\+0x816a8256\>
  fa:	62 82 02 
  fc:	62 82 02    	call      0x82628262 \<__FICD\+0x816a8256\>
  fe:	62 82 02 
Disassembly of section \.text:

00000226 \<\.text\>:
	\.\.\.

00028226 \<runfunct\>:
   28226:	00 00 00    	nop       
   28228:	00 00 ff    	nopr      
   2822a:	00 00 ff    	nopr      
   2822c:	50 82 04    	goto      0x28250 \<main\>
   2822e:	02 00 00 

00028230 \<b3\>:
   28230:	02 00 00    	nop       

00028232 \<b4\>:
   28232:	02 00 00    	nop       
Disassembly of section \.dinit:

00028234 \<\.dinit\>:
   28234:	00 08 00    	nop       
   28236:	08 00 00    	nop       
   28238:	02 00 00    	nop       
   2823a:	04 00 00    	nop       
   2823c:	00 02 00    	nop       
   2823e:	02 00 00    	nop       
   28240:	08 08 00    	nop       
   28242:	08 00 00    	nop       
   28244:	02 00 00    	nop       
   28246:	04 00 00    	nop       
   28248:	00 02 00    	nop       
   2824a:	02 00 00    	nop       
   2824c:	00 00 00    	nop       
Disassembly of section \.text:

0002824e \<__reset\>:
   2824e:	00 00 00    	nop       

00028250 \<main\>:
   28250:	00 00 ff    	nopr      
   28252:	00 00 ff    	nopr      
   28254:	00 00 20    	mov\.w     \#0x0, w0
   28256:	00 40 88    	mov\.w     w0, 0x800
   28258:	40 22 20    	mov\.w     \#0x224, w0
   2825a:	90 00 78    	mov\.w     \[w0\], w1
   2825c:	f9 ff 37    	bra       0x28250 \<main\>

0002825e \<a3\>:
   2825e:	02 00 00    	nop       

00028260 \<a4\>:
   28260:	02 00 00    	nop       
Disassembly of section \.isr:

00028262 \<__DefaultInterrupt\>:
   28262:	00 00 fe    	reset     
